target datalayout = "e-m:e-p270:32:32-p271:32:32-p272:64:64-i64:64-i128:128-f80:128-n8:16:32:64-S128"
target triple = "x86_64-pc-linux-gnu"

%struct.diff_filespec = type { %struct.object_id, ptr, ptr, ptr, i64, i32, i32, i16, i16, ptr }
%struct.object_id = type { [32 x i8], i32 }

; Function Attrs: nounwind uwtable
define dso_local void @diff_free_filespec_blob(ptr noundef %0) #0 {
  %2 = alloca ptr, align 8
  store ptr %0, ptr %2, align 8, !tbaa !88
  %3 = load ptr, ptr %2, align 8, !tbaa !88
  %4 = getelementptr inbounds nuw %struct.diff_filespec, ptr %3, i32 0, i32 8
  %5 = load i16, ptr %4, align 2
  %6 = lshr i16 %5, 1
  %7 = and i16 %6, 1
  %8 = zext i16 %7 to i32
  %9 = icmp ne i32 %8, 0
  br i1 %9, label %10, label %14

10:                                               ; preds = %1
  %11 = load ptr, ptr %2, align 8, !tbaa !88
  %12 = getelementptr inbounds nuw %struct.diff_filespec, ptr %11, i32 0, i32 2
  %13 = load ptr, ptr %12, align 8, !tbaa !118
  call void @free(ptr noundef %13) #10
  br label %31

14:                                               ; preds = %1
  %15 = load ptr, ptr %2, align 8, !tbaa !88
  %16 = getelementptr inbounds nuw %struct.diff_filespec, ptr %15, i32 0, i32 8
  %17 = load i16, ptr %16, align 2
  %18 = lshr i16 %17, 2
  %19 = and i16 %18, 1
  %20 = zext i16 %19 to i32
  %21 = icmp ne i32 %20, 0
  br i1 %21, label %22, label %30

22:                                               ; preds = %14
  %23 = load ptr, ptr %2, align 8, !tbaa !88
  %24 = getelementptr inbounds nuw %struct.diff_filespec, ptr %23, i32 0, i32 2
  %25 = load ptr, ptr %24, align 8, !tbaa !118
  %26 = load ptr, ptr %2, align 8, !tbaa !88
  %27 = getelementptr inbounds nuw %struct.diff_filespec, ptr %26, i32 0, i32 4
  %28 = load i64, ptr %27, align 8, !tbaa !120
  %29 = call i32 @munmap(ptr noundef %25, i64 noundef %28) #10
  br label %30

30:                                               ; preds = %22, %14
  br label %31

31:                                               ; preds = %30, %10
  %32 = load ptr, ptr %2, align 8, !tbaa !88
  %33 = getelementptr inbounds nuw %struct.diff_filespec, ptr %32, i32 0, i32 8
  %34 = load i16, ptr %33, align 2
  %35 = lshr i16 %34, 1
  %36 = and i16 %35, 1
  %37 = zext i16 %36 to i32
  %38 = icmp ne i32 %37, 0
  br i1 %38, label %47, label %39

39:                                               ; preds = %31
  %40 = load ptr, ptr %2, align 8, !tbaa !88
  %41 = getelementptr inbounds nuw %struct.diff_filespec, ptr %40, i32 0, i32 8
  %42 = load i16, ptr %41, align 2
  %43 = lshr i16 %42, 2
  %44 = and i16 %43, 1
  %45 = zext i16 %44 to i32
  %46 = icmp ne i32 %45, 0
  br i1 %46, label %47, label %60

47:                                               ; preds = %39, %31
  %48 = load ptr, ptr %2, align 8, !tbaa !88
  %49 = getelementptr inbounds nuw %struct.diff_filespec, ptr %48, i32 0, i32 8
  %50 = load i16, ptr %49, align 2
  %51 = and i16 %50, -5
  %52 = or i16 %51, 0
  store i16 %52, ptr %49, align 2
  %53 = load ptr, ptr %2, align 8, !tbaa !88
  %54 = getelementptr inbounds nuw %struct.diff_filespec, ptr %53, i32 0, i32 8
  %55 = load i16, ptr %54, align 2
  %56 = and i16 %55, -3
  %57 = or i16 %56, 0
  store i16 %57, ptr %54, align 2
  %58 = load ptr, ptr %2, align 8, !tbaa !88
  %59 = getelementptr inbounds nuw %struct.diff_filespec, ptr %58, i32 0, i32 2
  store ptr null, ptr %59, align 8, !tbaa !118
  br label %60

60:                                               ; preds = %47, %39
  ret void
}

; Function Attrs: nounwind uwtable
define dso_local void @diff_free_filespec_data(ptr noundef %0) #0 {
  %2 = alloca ptr, align 8
  store ptr %0, ptr %2, align 8, !tbaa !88
  %3 = load ptr, ptr %2, align 8, !tbaa !88
  %4 = icmp ne ptr %3, null
  br i1 %4, label %6, label %5

5:                                                ; preds = %1
  br label %14

6:                                                ; preds = %1
  %7 = load ptr, ptr %2, align 8, !tbaa !88
  call void @diff_free_filespec_blob(ptr noundef %7)
  br label %8

8:                                                ; preds = %6
  %9 = load ptr, ptr %2, align 8, !tbaa !88
  %10 = getelementptr inbounds nuw %struct.diff_filespec, ptr %9, i32 0, i32 3
  %11 = load ptr, ptr %10, align 8, !tbaa !140
  call void @free(ptr noundef %11) #10
  %12 = load ptr, ptr %2, align 8, !tbaa !88
  %13 = getelementptr inbounds nuw %struct.diff_filespec, ptr %12, i32 0, i32 3
  store ptr null, ptr %13, align 8, !tbaa !140
  br label %14

14:                                               ; preds = %5, %8
  ret void
}