; Function Attrs: nounwind uwtable
define dso_local void @diff_free_filespec_data(ptr noundef %0) local_unnamed_addr #0 {
  %.not = icmp eq ptr %0, null
  br i1 %.not, label %25, label %2

2:                                                ; preds = %1
  %3 = getelementptr inbounds nuw i8, ptr %0, i64 82
  %4 = load i16, ptr %3, align 2
  %5 = and i16 %4, 2
  %.not.i = icmp eq i16 %5, 0
  br i1 %.not.i, label %9, label %6

6:                                                ; preds = %2
  %7 = getelementptr inbounds nuw i8, ptr %0, i64 48
  %8 = load ptr, ptr %7, align 8, !tbaa !107
  tail call void @free(ptr noundef %8) #32
  br label %17

9:                                                ; preds = %2
  %10 = and i16 %4, 4
  %.not10.i = icmp eq i16 %10, 0
  br i1 %.not10.i, label %17, label %11

11:                                               ; preds = %9
  %12 = getelementptr inbounds nuw i8, ptr %0, i64 48
  %13 = load ptr, ptr %12, align 8, !tbaa !107
  %14 = getelementptr inbounds nuw i8, ptr %0, i64 64
  %15 = load i64, ptr %14, align 8, !tbaa !108
  %16 = tail call i32 @munmap(ptr noundef %13, i64 noundef %15) #32
  br label %17

17:                                               ; preds = %11, %9, %6
  %18 = load i16, ptr %3, align 2
  %19 = and i16 %18, 6
  %or.cond.i = icmp eq i16 %19, 0
  br i1 %or.cond.i, label %diff_free_filespec_blob.exit, label %20

20:                                               ; preds = %17
  %21 = and i16 %18, -7
  store i16 %21, ptr %3, align 2
  %22 = getelementptr inbounds nuw i8, ptr %0, i64 48
  store ptr null, ptr %22, align 8, !tbaa !107
  br label %diff_free_filespec_blob.exit

diff_free_filespec_blob.exit:                     ; preds = %17, %20
  %23 = getelementptr inbounds nuw i8, ptr %0, i64 56
  %24 = load ptr, ptr %23, align 8, !tbaa !125
  tail call void @free(ptr noundef %24) #32
  store ptr null, ptr %23, align 8, !tbaa !125
  br label %25

25:                                               ; preds = %1, %diff_free_filespec_blob.exit
  ret void
}